target datalayout = "e-m:e-p270:32:32-p271:32:32-p272:64:64-i64:64-i128:128-f80:128-n8:16:32:64-S128"
target triple = "x86_64-pc-linux-gnu"

%struct.yyguts_t = type { ptr, ptr, ptr, i64, i64, ptr, i8, i64, i64, ptr, i32, i32, i32, i32, i32, ptr, i32, ptr, i32, i32, ptr, i32, i32 }

@_ZL7yy_meta = internal constant [33 x i8] c"\00\01\01\02\01\01\01\01\01\03\04\01\01\01\04\04\01\04\04\04\04\04\04\04\04\04\04\04\04\04\04\04\01", align 16

; Function Attrs: mustprogress nounwind uwtable
define internal noundef i32 @_ZL16yy_try_NUL_transiPv(i32 noundef %0, ptr noundef %1) #1 {
  %3 = alloca i32, align 4
  %4 = alloca ptr, align 8
  %5 = alloca i32, align 4
  %6 = alloca ptr, align 8
  %7 = alloca ptr, align 8
  %8 = alloca i8, align 1
  store i32 %0, ptr %3, align 4
  store ptr %1, ptr %4, align 8
  %9 = load ptr, ptr %4, align 8
  store ptr %9, ptr %6, align 8
  %10 = load ptr, ptr %6, align 8
  %11 = getelementptr inbounds %struct.yyguts_t, ptr %10, i32 0, i32 9
  %12 = load ptr, ptr %11, align 8
  store ptr %12, ptr %7, align 8
  store i8 1, ptr %8, align 1
  %13 = load i32, ptr %3, align 4
  %14 = sext i32 %13 to i64
  %15 = getelementptr inbounds [76 x i16], ptr @_ZL9yy_accept, i64 0, i64 %14
  %16 = load i16, ptr %15, align 2
  %17 = icmp ne i16 %16, 0
  br i1 %17, label %18, label %25

18:                                               ; preds = %2
  %19 = load i32, ptr %3, align 4
  %20 = load ptr, ptr %6, align 8
  %21 = getelementptr inbounds %struct.yyguts_t, ptr %20, i32 0, i32 16
  store i32 %19, ptr %21, align 8
  %22 = load ptr, ptr %7, align 8
  %23 = load ptr, ptr %6, align 8
  %24 = getelementptr inbounds %struct.yyguts_t, ptr %23, i32 0, i32 17
  store ptr %22, ptr %24, align 8
  br label %25

25:                                               ; preds = %18, %2
  br label %26

26:                                               ; preds = %55, %25
  %27 = load i32, ptr %3, align 4
  %28 = sext i32 %27 to i64
  %29 = getelementptr inbounds [80 x i16], ptr @_ZL7yy_base, i64 0, i64 %28
  %30 = load i16, ptr %29, align 2
  %31 = zext i16 %30 to i32
  %32 = load i8, ptr %8, align 1
  %33 = zext i8 %32 to i32
  %34 = add nsw i32 %31, %33
  %35 = sext i32 %34 to i64
  %36 = getelementptr inbounds [151 x i16], ptr @_ZL6yy_chk, i64 0, i64 %35
  %37 = load i16, ptr %36, align 2
  %38 = sext i16 %37 to i32
  %39 = load i32, ptr %3, align 4
  %40 = icmp ne i32 %38, %39
  br i1 %40, label %41, label %56

41:                                               ; preds = %26
  %42 = load i32, ptr %3, align 4
  %43 = sext i32 %42 to i64
  %44 = getelementptr inbounds [80 x i16], ptr @_ZL6yy_def, i64 0, i64 %43
  %45 = load i16, ptr %44, align 2
  %46 = sext i16 %45 to i32
  store i32 %46, ptr %3, align 4
  %47 = load i32, ptr %3, align 4
  %48 = icmp sge i32 %47, 76
  br i1 %48, label %49, label %55

49:                                               ; preds = %41
  %50 = load i8, ptr %8, align 1
  %51 = zext i8 %50 to i32
  %52 = zext i32 %51 to i64
  %53 = getelementptr inbounds [33 x i8], ptr @_ZL7yy_meta, i64 0, i64 %52
  %54 = load i8, ptr %53, align 1
  store i8 %54, ptr %8, align 1
  br label %55

55:                                               ; preds = %49, %41
  br label %26, !llvm.loop !10

56:                                               ; preds = %26
  %57 = load i32, ptr %3, align 4
  %58 = sext i32 %57 to i64
  %59 = getelementptr inbounds [80 x i16], ptr @_ZL7yy_base, i64 0, i64 %58
  %60 = load i16, ptr %59, align 2
  %61 = zext i16 %60 to i32
  %62 = load i8, ptr %8, align 1
  %63 = zext i8 %62 to i32
  %64 = add i32 %61, %63
  %65 = zext i32 %64 to i64
  %66 = getelementptr inbounds [151 x i16], ptr @_ZL6yy_nxt, i64 0, i64 %65
  %67 = load i16, ptr %66, align 2
  %68 = zext i16 %67 to i32
  store i32 %68, ptr %3, align 4
  %69 = load i32, ptr %3, align 4
  %70 = icmp eq i32 %69, 75
  %71 = zext i1 %70 to i32
  store i32 %71, ptr %5, align 4
  %72 = load i32, ptr %5, align 4
  %73 = icmp ne i32 %72, 0
  br i1 %73, label %74, label %75

74:                                               ; preds = %56
  br label %77

75:                                               ; preds = %56
  %76 = load i32, ptr %3, align 4
  br label %77

77:                                               ; preds = %75, %74
  %78 = phi i32 [ 0, %74 ], [ %76, %75 ]
  ret i32 %78
}