; Function Attrs: mustprogress nofree norecurse nosync nounwind memory(argmem: readwrite) uwtable
define internal fastcc noundef i32 @_ZL16yy_try_NUL_transiPv(i32 noundef %0, ptr nocapture noundef %1) unnamed_addr #8 {
  %3 = sext i32 %0 to i64
  %4 = getelementptr inbounds [76 x i16], ptr @_ZL9yy_accept, i64 0, i64 %3
  %5 = load i16, ptr %4, align 2
  %.not = icmp eq i16 %5, 0
  br i1 %.not, label %11, label %6

6:                                                ; preds = %2
  %7 = getelementptr inbounds i8, ptr %1, i64 72
  %8 = load ptr, ptr %7, align 8
  %9 = getelementptr inbounds i8, ptr %1, i64 112
  store i32 %0, ptr %9, align 8
  %10 = getelementptr inbounds i8, ptr %1, i64 120
  store ptr %8, ptr %10, align 8
  br label %11

11:                                               ; preds = %6, %2
  %12 = getelementptr inbounds [80 x i16], ptr @_ZL7yy_base, i64 0, i64 %3
  %13 = load i16, ptr %12, align 2
  %14 = zext i16 %13 to i64
  %15 = add nuw nsw i64 %14, 1
  %16 = getelementptr inbounds [151 x i16], ptr @_ZL6yy_chk, i64 0, i64 %15
  %17 = load i16, ptr %16, align 2
  %18 = sext i16 %17 to i32
  %.not1819 = icmp eq i32 %18, %0
  br i1 %.not1819, label %._crit_edge, label %.lr.ph

.lr.ph:                                           ; preds = %11, %.lr.ph
  %19 = phi i64 [ %22, %.lr.ph ], [ %3, %11 ]
  %20 = getelementptr inbounds [80 x i16], ptr @_ZL6yy_def, i64 0, i64 %19
  %21 = load i16, ptr %20, align 2
  %22 = sext i16 %21 to i64
  %23 = getelementptr inbounds [80 x i16], ptr @_ZL7yy_base, i64 0, i64 %22
  %24 = load i16, ptr %23, align 2
  %25 = zext i16 %24 to i64
  %26 = add nuw nsw i64 %25, 1
  %27 = getelementptr inbounds [151 x i16], ptr @_ZL6yy_chk, i64 0, i64 %26
  %28 = load i16, ptr %27, align 2
  %.not18 = icmp eq i16 %21, %28
  br i1 %.not18, label %._crit_edge, label %.lr.ph, !llvm.loop !15

._crit_edge:                                      ; preds = %.lr.ph, %11
  %.lcssa = phi i64 [ %15, %11 ], [ %26, %.lr.ph ]
  %29 = getelementptr inbounds [151 x i16], ptr @_ZL6yy_nxt, i64 0, i64 %.lcssa
  %30 = load i16, ptr %29, align 2
  %31 = icmp eq i16 %30, 75
  %narrow = select i1 %31, i16 0, i16 %30
  %32 = zext i16 %narrow to i32
  ret i32 %32
}